target datalayout = "e-m:e-p270:32:32-p271:32:32-p272:64:64-i64:64-i128:128-f80:128-n8:16:32:64-S128"
target triple = "x86_64-pc-linux-gnu"

%struct.lua_State = type { i8, i8, i8, i8, i8, i8, i8, ptr, ptr, ptr, ptr, ptr, ptr, ptr, ptr, i32, i32, i16, i16, i32, ptr, ptr, ptr, ptr, ptr }
%struct.global_State = type { %struct.stringtable, ptr, ptr, i8, i8, ptr, ptr, ptr, i64, i64, i32, i32, i32, [40 x ptr], [40 x ptr], ptr, ptr, ptr, [256 x i64], ptr, %struct.UpVal, [11 x ptr], [11 x ptr], [21 x ptr], %struct.lua_TValue, %struct.lua_TValue, i32, ptr, i64, [4 x i64], %struct.lua_Callbacks, %struct.lua_ExecutionCallbacks, [128 x ptr], [128 x ptr], [128 x ptr], %struct.GCStats }
%struct.stringtable = type { ptr, i32, i32 }
%struct.UpVal = type { i8, i8, i8, i8, ptr, %union.anon }
%union.anon = type { %struct.anon }
%struct.anon = type { ptr, ptr, ptr }
%struct.lua_TValue = type { %union.Value, [1 x i32], i32 }
%union.Value = type { ptr }
%struct.lua_Callbacks = type { ptr, ptr, ptr, ptr, ptr, ptr, ptr, ptr, ptr }
%struct.lua_ExecutionCallbacks = type { ptr, ptr, ptr, ptr, ptr, ptr, ptr }
%struct.GCStats = type { [32 x i32], i32, i32, i64, i64, i64, double, double, double }
%struct.GCheader = type { i8, i8, i8 }
%struct.Table = type { i8, i8, i8, i8, i8, i8, i8, i8, i32, %union.anon.4, ptr, ptr, ptr, ptr }
%union.anon.4 = type { i32 }
%struct.Udata = type { i8, i8, i8, i8, i32, ptr, %union.anon.0 }
%union.anon.0 = type { %union.L_Umaxalign }
%union.L_Umaxalign = type { double }
%struct.Closure = type { i8, i8, i8, i8, i8, i8, i8, ptr, ptr, %union.anon.1 }
%union.anon.1 = type { %struct.anon.2 }
%struct.anon.2 = type { ptr, ptr, ptr, [1 x %struct.lua_TValue] }
%struct.Proto = type { i8, i8, i8, i8, i8, i8, i8, i8, ptr, ptr, ptr, ptr, ptr, i64, ptr, ptr, ptr, ptr, ptr, ptr, ptr, ptr, ptr, ptr, i32, i32, i32, i32, i32, i32, i32, i32, i32, i32 }

; Function Attrs: mustprogress uwtable
define internal void @_ZL16reallymarkobjectP12global_StateP8GCObject(ptr noundef %0, ptr noundef %1) #0 {
  %3 = alloca ptr, align 8
  %4 = alloca ptr, align 8
  %5 = alloca ptr, align 8
  %6 = alloca ptr, align 8
  store ptr %0, ptr %3, align 8
  store ptr %1, ptr %4, align 8
  %7 = load ptr, ptr %4, align 8
  %8 = getelementptr inbounds %struct.GCheader, ptr %7, i32 0, i32 1
  %9 = load i8, ptr %8, align 1
  %10 = zext i8 %9 to i32
  %11 = and i32 %10, 252
  %12 = trunc i32 %11 to i8
  store i8 %12, ptr %8, align 1
  %13 = load ptr, ptr %4, align 8
  %14 = getelementptr inbounds %struct.GCheader, ptr %13, i32 0, i32 0
  %15 = load i8, ptr %14, align 8
  %16 = zext i8 %15 to i32
  switch i32 %16, label %128 [
    i32 5, label %17
    i32 8, label %18
    i32 12, label %44
    i32 7, label %85
    i32 6, label %94
    i32 9, label %103
    i32 10, label %112
    i32 11, label %119
  ]

17:                                               ; preds = %2
  br label %129

18:                                               ; preds = %2
  %19 = load ptr, ptr %4, align 8
  %20 = getelementptr inbounds %struct.Udata, ptr %19, i32 0, i32 5
  %21 = load ptr, ptr %20, align 8
  store ptr %21, ptr %5, align 8
  %22 = load ptr, ptr %4, align 8
  %23 = getelementptr inbounds %struct.GCheader, ptr %22, i32 0, i32 1
  %24 = load i8, ptr %23, align 1
  %25 = zext i8 %24 to i32
  %26 = or i32 %25, 4
  %27 = trunc i32 %26 to i8
  store i8 %27, ptr %23, align 1
  %28 = load ptr, ptr %5, align 8
  %29 = icmp ne ptr %28, null
  br i1 %29, label %30, label %43

30:                                               ; preds = %18
  %31 = load ptr, ptr %5, align 8
  %32 = getelementptr inbounds %struct.Table, ptr %31, i64 0
  %33 = getelementptr inbounds %struct.GCheader, ptr %32, i32 0, i32 1
  %34 = load i8, ptr %33, align 1
  %35 = zext i8 %34 to i32
  %36 = and i32 %35, 3
  %37 = icmp ne i32 %36, 0
  br i1 %37, label %38, label %42

38:                                               ; preds = %30
  %39 = load ptr, ptr %3, align 8
  %40 = load ptr, ptr %5, align 8
  %41 = getelementptr inbounds %struct.Table, ptr %40, i64 0
  call void @_ZL16reallymarkobjectP12global_StateP8GCObject(ptr noundef %39, ptr noundef %41)
  br label %42

42:                                               ; preds = %38, %30
  br label %43

43:                                               ; preds = %42, %18
  br label %129

44:                                               ; preds = %2
  %45 = load ptr, ptr %4, align 8
  store ptr %45, ptr %6, align 8
  %46 = load ptr, ptr %6, align 8
  %47 = getelementptr inbounds %struct.UpVal, ptr %46, i32 0, i32 4
  %48 = load ptr, ptr %47, align 8
  %49 = getelementptr inbounds %struct.lua_TValue, ptr %48, i32 0, i32 2
  %50 = load i32, ptr %49, align 4
  %51 = icmp sge i32 %50, 5
  br i1 %51, label %52, label %70

52:                                               ; preds = %44
  %53 = load ptr, ptr %6, align 8
  %54 = getelementptr inbounds %struct.UpVal, ptr %53, i32 0, i32 4
  %55 = load ptr, ptr %54, align 8
  %56 = getelementptr inbounds %struct.lua_TValue, ptr %55, i32 0, i32 0
  %57 = load ptr, ptr %56, align 8
  %58 = getelementptr inbounds %struct.GCheader, ptr %57, i32 0, i32 1
  %59 = load i8, ptr %58, align 1
  %60 = zext i8 %59 to i32
  %61 = and i32 %60, 3
  %62 = icmp ne i32 %61, 0
  br i1 %62, label %63, label %70

63:                                               ; preds = %52
  %64 = load ptr, ptr %3, align 8
  %65 = load ptr, ptr %6, align 8
  %66 = getelementptr inbounds %struct.UpVal, ptr %65, i32 0, i32 4
  %67 = load ptr, ptr %66, align 8
  %68 = getelementptr inbounds %struct.lua_TValue, ptr %67, i32 0, i32 0
  %69 = load ptr, ptr %68, align 8
  call void @_ZL16reallymarkobjectP12global_StateP8GCObject(ptr noundef %64, ptr noundef %69)
  br label %70

70:                                               ; preds = %63, %52, %44
  %71 = load ptr, ptr %6, align 8
  %72 = getelementptr inbounds %struct.UpVal, ptr %71, i32 0, i32 4
  %73 = load ptr, ptr %72, align 8
  %74 = load ptr, ptr %6, align 8
  %75 = getelementptr inbounds %struct.UpVal, ptr %74, i32 0, i32 5
  %76 = icmp ne ptr %73, %75
  br i1 %76, label %84, label %77

77:                                               ; preds = %70
  %78 = load ptr, ptr %4, align 8
  %79 = getelementptr inbounds %struct.GCheader, ptr %78, i32 0, i32 1
  %80 = load i8, ptr %79, align 1
  %81 = zext i8 %80 to i32
  %82 = or i32 %81, 4
  %83 = trunc i32 %82 to i8
  store i8 %83, ptr %79, align 1
  br label %84

84:                                               ; preds = %77, %70
  br label %129

85:                                               ; preds = %2
  %86 = load ptr, ptr %3, align 8
  %87 = getelementptr inbounds %struct.global_State, ptr %86, i32 0, i32 5
  %88 = load ptr, ptr %87, align 8
  %89 = load ptr, ptr %4, align 8
  %90 = getelementptr inbounds %struct.Closure, ptr %89, i32 0, i32 7
  store ptr %88, ptr %90, align 8
  %91 = load ptr, ptr %4, align 8
  %92 = load ptr, ptr %3, align 8
  %93 = getelementptr inbounds %struct.global_State, ptr %92, i32 0, i32 5
  store ptr %91, ptr %93, align 8
  br label %129

94:                                               ; preds = %2
  %95 = load ptr, ptr %3, align 8
  %96 = getelementptr inbounds %struct.global_State, ptr %95, i32 0, i32 5
  %97 = load ptr, ptr %96, align 8
  %98 = load ptr, ptr %4, align 8
  %99 = getelementptr inbounds %struct.Table, ptr %98, i32 0, i32 13
  store ptr %97, ptr %99, align 8
  %100 = load ptr, ptr %4, align 8
  %101 = load ptr, ptr %3, align 8
  %102 = getelementptr inbounds %struct.global_State, ptr %101, i32 0, i32 5
  store ptr %100, ptr %102, align 8
  br label %129

103:                                              ; preds = %2
  %104 = load ptr, ptr %3, align 8
  %105 = getelementptr inbounds %struct.global_State, ptr %104, i32 0, i32 5
  %106 = load ptr, ptr %105, align 8
  %107 = load ptr, ptr %4, align 8
  %108 = getelementptr inbounds %struct.lua_State, ptr %107, i32 0, i32 22
  store ptr %106, ptr %108, align 8
  %109 = load ptr, ptr %4, align 8
  %110 = load ptr, ptr %3, align 8
  %111 = getelementptr inbounds %struct.global_State, ptr %110, i32 0, i32 5
  store ptr %109, ptr %111, align 8
  br label %129

112:                                              ; preds = %2
  %113 = load ptr, ptr %4, align 8
  %114 = getelementptr inbounds %struct.GCheader, ptr %113, i32 0, i32 1
  %115 = load i8, ptr %114, align 1
  %116 = zext i8 %115 to i32
  %117 = or i32 %116, 4
  %118 = trunc i32 %117 to i8
  store i8 %118, ptr %114, align 1
  br label %129

119:                                              ; preds = %2
  %120 = load ptr, ptr %3, align 8
  %121 = getelementptr inbounds %struct.global_State, ptr %120, i32 0, i32 5
  %122 = load ptr, ptr %121, align 8
  %123 = load ptr, ptr %4, align 8
  %124 = getelementptr inbounds %struct.Proto, ptr %123, i32 0, i32 23
  store ptr %122, ptr %124, align 8
  %125 = load ptr, ptr %4, align 8
  %126 = load ptr, ptr %3, align 8
  %127 = getelementptr inbounds %struct.global_State, ptr %126, i32 0, i32 5
  store ptr %125, ptr %127, align 8
  br label %129

128:                                              ; preds = %2
  br label %129

129:                                              ; preds = %128, %119, %112, %103, %94, %85, %84, %43, %17
  ret void
}