; Function Attrs: mustprogress nofree nosync nounwind memory(readwrite, inaccessiblemem: none) uwtable
define internal fastcc void @_ZL16reallymarkobjectP12global_StateP8GCObject(ptr nocapture noundef %0, ptr noundef %1) unnamed_addr #2 {
  %.phi.trans.insert = getelementptr inbounds i8, ptr %1, i64 1
  %.pre = load i8, ptr %.phi.trans.insert, align 1
  br label %tailrecurse

tailrecurse:                                      ; preds = %11, %2
  %3 = phi i8 [ %.pre, %2 ], [ %13, %11 ]
  %.tr36 = phi ptr [ %1, %2 ], [ %9, %11 ]
  %4 = getelementptr inbounds i8, ptr %.tr36, i64 1
  %5 = and i8 %3, -4
  store i8 %5, ptr %4, align 1
  %6 = load i8, ptr %.tr36, align 8
  switch i8 %6, label %.loopexit [
    i8 11, label %47
    i8 8, label %7
    i8 12, label %15
    i8 7, label %33
    i8 6, label %37
    i8 9, label %41
    i8 10, label %45
  ]

7:                                                ; preds = %tailrecurse
  %8 = getelementptr inbounds i8, ptr %.tr36, i64 8
  %9 = load ptr, ptr %8, align 8
  %10 = or i8 %5, 4
  store i8 %10, ptr %4, align 1
  %.not34 = icmp eq ptr %9, null
  br i1 %.not34, label %.loopexit, label %11

11:                                               ; preds = %7
  %12 = getelementptr inbounds i8, ptr %9, i64 1
  %13 = load i8, ptr %12, align 1
  %14 = and i8 %13, 3
  %.not35 = icmp eq i8 %14, 0
  br i1 %.not35, label %.loopexit, label %tailrecurse

15:                                               ; preds = %tailrecurse
  %16 = getelementptr inbounds i8, ptr %.tr36, i64 8
  %17 = load ptr, ptr %16, align 8
  %18 = getelementptr inbounds i8, ptr %17, i64 12
  %19 = load i32, ptr %18, align 4
  %20 = icmp sgt i32 %19, 4
  br i1 %20, label %21, label %27

21:                                               ; preds = %15
  %22 = load ptr, ptr %17, align 8
  %23 = getelementptr inbounds i8, ptr %22, i64 1
  %24 = load i8, ptr %23, align 1
  %25 = and i8 %24, 3
  %.not = icmp eq i8 %25, 0
  br i1 %.not, label %27, label %26

26:                                               ; preds = %21
  tail call fastcc void @_ZL16reallymarkobjectP12global_StateP8GCObject(ptr noundef %0, ptr noundef nonnull %22)
  %.pre75 = load ptr, ptr %16, align 8
  br label %27

27:                                               ; preds = %26, %21, %15
  %28 = phi ptr [ %.pre75, %26 ], [ %17, %21 ], [ %17, %15 ]
  %29 = getelementptr inbounds i8, ptr %.tr36, i64 16
  %.not33 = icmp eq ptr %28, %29
  br i1 %.not33, label %30, label %.loopexit

30:                                               ; preds = %27
  %31 = load i8, ptr %4, align 1
  %32 = or i8 %31, 4
  store i8 %32, ptr %4, align 1
  br label %.loopexit

33:                                               ; preds = %tailrecurse
  %34 = getelementptr inbounds i8, ptr %0, i64 40
  %35 = load ptr, ptr %34, align 8
  %36 = getelementptr inbounds i8, ptr %.tr36, i64 8
  store ptr %35, ptr %36, align 8
  store ptr %.tr36, ptr %34, align 8
  br label %.loopexit

37:                                               ; preds = %tailrecurse
  %38 = getelementptr inbounds i8, ptr %0, i64 40
  %39 = load ptr, ptr %38, align 8
  %40 = getelementptr inbounds i8, ptr %.tr36, i64 40
  store ptr %39, ptr %40, align 8
  store ptr %.tr36, ptr %38, align 8
  br label %.loopexit

41:                                               ; preds = %tailrecurse
  %42 = getelementptr inbounds i8, ptr %0, i64 40
  %43 = load ptr, ptr %42, align 8
  %44 = getelementptr inbounds i8, ptr %.tr36, i64 104
  store ptr %43, ptr %44, align 8
  store ptr %.tr36, ptr %42, align 8
  br label %.loopexit

45:                                               ; preds = %tailrecurse
  %46 = or i8 %5, 4
  store i8 %46, ptr %4, align 1
  br label %.loopexit

47:                                               ; preds = %tailrecurse
  %48 = getelementptr inbounds i8, ptr %0, i64 40
  %49 = load ptr, ptr %48, align 8
  %50 = getelementptr inbounds i8, ptr %.tr36, i64 128
  store ptr %49, ptr %50, align 8
  store ptr %.tr36, ptr %48, align 8
  br label %.loopexit

.loopexit:                                        ; preds = %tailrecurse, %7, %11, %27, %30, %47, %45, %41, %37, %33
  ret void
}